; Function Attrs: mustprogress nounwind uwtable
define dso_local void @_ZN4llvm9DwarfUnit13addGlobalTypeEPKNS_6DITypeERKNS_3DIEEPKNS_7DIScopeE(ptr noundef nonnull align 8 dereferenceable(328) %0, ptr noundef %1, ptr noundef nonnull align 8 dereferenceable(48) %2, ptr noundef %3) local_unnamed_addr #0 align 2 {
  %.not = icmp eq ptr %3, null
  br i1 %.not, label %7, label %5

5:                                                ; preds = %4
  %6 = load i8, ptr %3, align 4
  switch i8 %6, label %11 [
    i8 17, label %7
    i8 16, label %7
    i8 21, label %7
    i8 33, label %7
  ]

7:                                                ; preds = %5, %5, %5, %5, %4
  %8 = load ptr, ptr %0, align 8
  %9 = getelementptr inbounds i8, ptr %8, i64 32
  %10 = load ptr, ptr %9, align 8
  tail call void %10(ptr noundef nonnull align 8 dereferenceable(328) %0, ptr noundef %1, ptr noundef nonnull align 8 dereferenceable(48) %2, ptr noundef %3) #19
  br label %11

11:                                               ; preds = %5, %7
  ret void
}